(dp0
S'cocotable3'
p1
(lp2
F2.5600831526667522
aF3.5662904906070585
aF0.9113862644162309
aF-0.4115520344177974
asS'cocotable2'
p3
(lp4
F1.640776994350952
aF1.2689538578800441
aF0.9992827530190705
aF0.03786792202679041
asS'cocorecharge'
p5
(lp6
F1.3507579307011328
aF-0.9140534738016493
aF-0.7277544525050331
aF0.6858377773636412
asS'cocotable1'
p7
(lp8
F3.305181436473545
aF1.5717080869811486
aF0.05030067354485531
aF-0.9987341198942458
asS'cocobar'
p9
(lp10
F4.86614703564997
aF2.7671254917930117
aF-0.7568738866579732
aF-0.6535609533128899
as.