(dp0
S'table2'
p1
(lp2
F2.001872215066296
aF1.1748824989062503
aF-0.8289474921163885
aF0.5593264300155587
asS'table3'
p3
(lp4
F3.508061809231884
aF2.9028496618974104
aF-0.5644827368475626
aF0.8254448738717114
asS'table1'
p5
(lp6
F3.1707827424044037
aF0.6382880791400293
aF0.7582671095538714
aF0.6519440087682509
asS'depart'
p7
(lp8
F34.80157414411011
aF33.15966251516697
aF0.5605265651806471
aF0.8281364439069118
asS'test2'
p9
(lp10
F36.66281824056241
aF34.67022254434925
aF-0.9861024541037076
aF0.16613834599707922
asS'test1'
p11
(lp12
F35.76169352203005
aF35.198201310959085
aF-0.9968512898056905
aF-0.07929379555003875
asS'bar'
p13
(lp14
F5.475816980908464
aF0.8688550177547738
aF-0.9976638781626038
aF0.06831388006513259
asS'recharge'
p15
(lp16
F0.07714479708922038
aF0.3639684060492877
aF-0.22814528426027628
aF0.9736270996997761
as.