(dp0
S'table2'
p1
(lp2
F21.578778338926604
aF26.109956187925278
aF-0.052848302848524896
aF0.9986025520125764
asS'table3'
p3
(lp4
F22.12971695167523
aF28.152812405265976
aF0.8728831218391283
aF-0.4879293551410669
asS'table1'
p5
(lp6
F22.797044630276766
aF26.341374647324713
aF0.3085083761684838
aF0.9512216260335367
asS'bar'
p7
(lp8
F23.73950951409649
aF28.063638589281844
aF0.7808901447462214
aF0.6246683774917902
asS'recharge'
p9
(lp10
F21.8257855534036
aF22.908460758658606
aF0.7286828179683584
aF0.6848513348148574
as.