(dp0
S'table2'
p1
(lp2
F2.001872215066296
aF1.1748824989062503
aF-0.8289474921163885
aF0.5593264300155587
asS'table3'
p3
(lp4
F3.508061809231884
aF2.9028496618974104
aF-0.5644827368475626
aF0.8254448738717114
asS'table1'
p5
(lp6
F2.9226691810219827
aF0.7380693324419132
aF0.7985688793735436
aF0.6019034348598475
asS'bar'
p7
(lp8
F5.662533798219046
aF1.1915339375353557
aF0.5677457335374269
aF0.8232039735387877
asS'tagne'
p9
(lp10
F-21.2689863214036
aF-1.0389461981502848
aF0.622589009725736
aF0.7825489920565533
asS'recharge'
p11
(lp12
F0.24642985787229676
aF0.09382442595282203
aF-0.19344911822938396
aF0.9811103091173152
as.