(dp0
S'table2'
p1
(lp2
F1.1410906082366907
aF6.2690166922034365
aF0.7668963794308437
aF-0.6417709429507257
asS'table3'
p3
(lp4
F1.862942161745626
aF8.883568232895094
aF0.2778890238859917
aF-0.9606131845876833
asS'table1'
p5
(lp6
F2.4291939568523446
aF6.513721301712995
aF0.9551845193664493
aF0.29601103689336516
asS'bar'
p7
(lp8
F4.51335527343174
aF8.122362552372106
aF0.9532481138882467
aF-0.30218873799084633
asS'recharge'
p9
(lp10
F0.36049131810158547
aF4.291264971246743
aF0.0966299411056995
aF0.9953203778090294
as.